EXPORTS
    _Z10_clip_linePdS_S_S_dddd @1
    _Z11__miloadAETP15_EdgeTableEntryS0_ @2
    _Z11_add_circleP6plPath7plPointdb @3
    _Z11_add_ellarcP6plPath7plPointS1_ @4
    _Z11_add_movetoP6plPath7plPoint @5
    _Z11_miDeleteGCP8lib_miGC @6
    _Z11_new_outbufv @7
    _Z11_new_plPathv @8
    _Z11_truecenter7plPointS_S_ @9
    _Z11_write_bytePK13plPlotterDatah @10
    _Z12__miStepDashiPiS_PKjiS_ @11
    _Z12__miWideDashP16lib_miPaintedSetPK8lib_miGC11miCoordModeiPK7miPoint @12
    _Z12__miWideLineP16lib_miPaintedSetPK8lib_miGC11miCoordModeiPK7miPoint @13
    _Z12__miZeroDashP16lib_miPaintedSetPK8lib_miGC11miCoordModeiPK7miPoint @14
    _Z12__miZeroLineP16lib_miPaintedSetPK8lib_miGC11miCoordModeiPK7miPoint @15
    _Z12__mi_xcallocjj @16
    _Z12__mi_xmallocj @17
    _Z12_add_bezier2P6plPath7plPointS1_ @18
    _Z12_add_bezier3P6plPath7plPointS1_S1_ @19
    _Z12_add_ellipseP6plPath7plPointdddb @20
    _Z12_matrix_normPKd @21
    _Z12_merge_pathsPPK6plPathi @22
    _Z12_miNewCanvasjj7miPixel @23
    _Z12_update_bboxP14plOutbufStructdd @24
    _Z12_write_bytesPK13plPlotterDataiPKh @25
    _Z13__miPolyArc_rP16lib_miPaintedSetPK8lib_miGCiPK5miArcP18lib_miEllipseCache @26
    _Z13__mi_xreallocPvj @27
    _Z13_angle_of_arc7plPointS_S_ @28
    _Z13_flatten_pathPK6plPath @29
    _Z13_miCopyCanvasPK8miCanvas @30
    _Z13_plot_xcallocjj @31
    _Z13_plot_xmallocj @32
    _Z13_reset_outbufP14plOutbufStruct @33
    _Z13_reset_plPathP6plPath @34
    _Z13_rle_do_pixelP7rle_outi @35
    _Z13_write_stringPK13plPlotterDataPKc @36
    _Z14_add_closepathP6plPath @37
    _Z14_cgm_emit_enumP14plOutbufStructbiiiPiS1_PKc @38
    _Z14_delete_outbufP14plOutbufStruct @39
    _Z14_delete_plPathP6plPath @40
    _Z14_freeze_outbufP14plOutbufStruct @41
    _Z14_miSetGCAttribP8lib_miGC13miGCAttributei @42
    _Z14_miSetGCDashesP8lib_miGCiPKji @43
    _Z14_miSetGCPixelsP8lib_miGCiPK7miPixel @44
    _Z14_plot_xreallocPvj @45
    _Z14_rle_terminateP7rle_out @46
    _Z14_set_page_typeP13plPlotterData @47
    _Z14_update_bufferP14plOutbufStruct @48
    _Z15__miFillSppPolyP16lib_miPaintedSet7miPixeliPK8SppPointiidd @49
    _Z15__miFreeStorageP18_ScanLineListBlock @50
    _Z15__micomputeWAETP15_EdgeTableEntry @51
    _Z15_bbox_of_outbufP14plOutbufStructPdS1_S1_S1_ @52
    _Z15_cgm_emit_indexP14plOutbufStructbiiiPiS1_ @53
    _Z15_cgm_emit_pointP14plOutbufStructbiiiiPiS1_ @54
    _Z15_codestring_lenPKt @55
    _Z15_get_plot_paramPK13plPlotterDataPKc @56
    _Z15_matrix_inversePKdPd @57
    _Z15_matrix_productPKdS0_Pd @58
    _Z15_miDeleteCanvasP8miCanvas @59
    _Z15_miSetGCAttribsP8lib_miGCiPK13miGCAttributePKi @60
    _Z16_bbox_of_outbufsP14plOutbufStructPdS1_S1_S1_ @61
    _Z16_cgm_emit_pointsP14plOutbufStructbiPKiS2_iiPiS3_ @62
    _Z16_cgm_emit_stringP14plOutbufStructbiPKcibiPiS3_ @63
    _Z16_miNewPaintedSetv @64
    _Z16_string_to_colorPKcP7plColorP16plColorNameCache @65
    _Z17__miInsertionSortP15_EdgeTableEntry @66
    _Z17__miZeroPolyArc_rP16lib_miPaintedSetPK8lib_miGCiPK5miArcP18lib_miEllipseCache @67
    _Z17_add_arc_as_linesP6plPath7plPointS1_ @68
    _Z17_add_box_as_linesP6plPath7plPointS1_b @69
    _Z17_cgm_emit_integerP14plOutbufStructbiiiPiS1_ @70
    _Z17_grayscale_approxiii @71
    _Z17_matrix_sing_valsPKdPdS1_ @72
    _Z17_miSetPixelMerge2P8miCanvasPF7miPixelS1_S1_E @73
    _Z17_miSetPixelMerge3P8miCanvasPF7miPixelS1_S1_S1_E @74
    _Z17_set_bezier2_bboxP14plOutbufStructdddddddPd @75
    _Z17_set_bezier3_bboxP14plOutbufStructdddddddddPd @76
    _Z17_set_ellipse_bboxP14plOutbufStructdddddddPd @77
    _Z18__miCreateETandAETiPK7miPointP9EdgeTableP15_EdgeTableEntryS5_P18_ScanLineListBlock @78
    _Z18__miFillConvexPolyP16lib_miPaintedSetPK8lib_miGCiPK7miPoint @79
    _Z18_miClearPaintedSetP16lib_miPaintedSet @80
    _Z18_miSetGCMiterLimitP8lib_miGCd @81
    _Z18_set_line_end_bboxP14plOutbufStructdddddiPd @82
    _Z19__miFillGeneralPolyP16lib_miPaintedSetPK8lib_miGCiPK7miPoint @83
    _Z19__miQuickSortSpansYP7miPointPji @84
    _Z19_add_arc_as_bezier3P6plPath7plPointS1_ @85
    _Z19_miDeletePaintedSetP16lib_miPaintedSet @86
    _Z19_miSetCanvasStippleP8miCanvasPK8miBitmap7miPoint @87
    _Z19_miSetCanvasTextureP8miCanvasPK8miPixmap7miPoint @88
    _Z19_set_line_join_bboxP14plOutbufStructdddddddidPd @89
    _Z20_add_circle_as_linesP6plPath7plPointdb @90
    _Z20_add_ellarc_as_linesP6plPath7plPointS1_ @91
    _Z21__miFillArcs_internalP16lib_miPaintedSetPK8lib_miGCiPK5miArc @92
    _Z21_add_bezier2_as_linesP6plPath7plPointS1_ @93
    _Z21_add_bezier3_as_linesP6plPath7plPointS1_S1_ @94
    _Z21_add_ellipse_as_linesP6plPath7plPointdddb @95
    _Z22__miDrawLines_internalP16lib_miPaintedSetPK8lib_miGC11miCoordModeiPK7miPoint @96
    _Z22__miUniquifyPaintedSetP16lib_miPaintedSet @97
    _Z22_add_circle_as_ellarcsP6plPath7plPointdb @98
    _Z22_add_ellarc_as_bezier3P6plPath7plPointS1_ @99
    _Z23__miDrawArcs_r_internalP16lib_miPaintedSetPK8lib_miGCiPK5miArcP18lib_miEllipseCache @100
    _Z23__miDrawPoints_internalP16lib_miPaintedSetPK8lib_miGC11miCoordModeiPK7miPoint @101
    _Z23_add_circle_as_bezier3sP6plPath7plPointdb @102
    _Z23_add_ellipse_as_ellarcsP6plPath7plPointdddb @103
    _Z23_get_default_plot_paramPKc @104
    _Z23_miAddSpansToPaintedSetPK5SpansP16lib_miPaintedSet7miPixel @105
    _Z24__miFillPolygon_internalP16lib_miPaintedSetPK8lib_miGC14miPolygonShape11miCoordModeiPK7miPoint @106
    _Z24_add_ellipse_as_bezier3sP6plPath7plPointdddb @107
    _Z24_cgm_emit_command_headerP14plOutbufStructiiiiPiPKc @108
    _Z24_create_color_name_cachev @109
    _Z24_delete_color_name_cacheP16plColorNameCache @110
    _Z25_cgm_emit_color_componentP14plOutbufStructbijiPiS1_ @111
    _Z25_miCopyPaintedSetToCanvasPK16lib_miPaintedSetP8miCanvas7miPoint @112
    _Z25_set_common_mi_attributesP17plDrawStateStructPv @113
    _Z26_cgm_emit_real_fixed_pointP14plOutbufStructbidiPiS1_ @114
    _Z26_cgm_emit_unsigned_integerP14plOutbufStructbijiPiS1_ @115
    _Z26_compute_ndc_to_device_mapP13plPlotterData @116
    _Z27__miDrawRectangles_internalP16lib_miPaintedSetPK8lib_miGCiPK11miRectangle @117
    _Z27__miFillRectangles_internalP16lib_miPaintedSetPK8lib_miGCiPK11miRectangle @118
    _Z27_libplot_color_to_svg_color7plColorPc @119
    _Z28_cgm_emit_command_terminatorP14plOutbufStructiPi @120
    _Z29_cgm_emit_real_floating_pointP14plOutbufStructbidiPiS1_ @121
    _Z29_update_buffer_by_added_bytesP14plOutbufStructi @122
    _Z31_cgm_emit_unsigned_integer_8bitP14plOutbufStructbijiPiS1_ @123
    _Z7_vscaleP7plPointd @124
    _Z7_xatan2dd @125
    _Z8_add_arcP6plPath7plPointS1_ @126
    _Z8_add_boxP6plPath7plPointS1_b @127
    _Z8_miNewGCiPK7miPixel @128
    _Z9_add_lineP6plPath7plPoint @129
    _Z9_miCopyGCPK8lib_miGC @130
    _Z9_rle_initP6_iobufPSoi @131
    _ZN10CGMPlotter10begin_pageEv @132
    _ZN10CGMPlotter10erase_pageEv @133
    _ZN10CGMPlotter10initializeEv @134
    _ZN10CGMPlotter10paint_pathEv @135
    _ZN10CGMPlotter11paint_pathsEv @136
    _ZN10CGMPlotter11paint_pointEv @137
    _ZN10CGMPlotter12paint_markerEid @138
    _ZN10CGMPlotter15_c_set_bg_colorEv @139
    _ZN10CGMPlotter16_c_set_pen_colorEi @140
    _ZN10CGMPlotter17_c_set_attributesEi @141
    _ZN10CGMPlotter17_c_set_fill_colorEi @142
    _ZN10CGMPlotter17paint_text_stringEPKhii @143
    _ZN10CGMPlotter8end_pageEv @144
    _ZN10CGMPlotter9terminateEv @145
    _ZN10CGMPlotterC1EP6_iobuf @146
    _ZN10CGMPlotterC1EP6_iobufR13PlotterParams @147
    _ZN10CGMPlotterC1EP6_iobufS1_S1_ @148
    _ZN10CGMPlotterC1EP6_iobufS1_S1_R13PlotterParams @149
    _ZN10CGMPlotterC1ER13PlotterParams @150
    _ZN10CGMPlotterC1ERSiRSoS1_ @151
    _ZN10CGMPlotterC1ERSiRSoS1_R13PlotterParams @152
    _ZN10CGMPlotterC1ERSo @153
    _ZN10CGMPlotterC1ERSoR13PlotterParams @154
    _ZN10CGMPlotterC1Ev @155
    _ZN10CGMPlotterC2EP6_iobuf @156
    _ZN10CGMPlotterC2EP6_iobufR13PlotterParams @157
    _ZN10CGMPlotterC2EP6_iobufS1_S1_ @158
    _ZN10CGMPlotterC2EP6_iobufS1_S1_R13PlotterParams @159
    _ZN10CGMPlotterC2ER13PlotterParams @160
    _ZN10CGMPlotterC2ERSiRSoS1_ @161
    _ZN10CGMPlotterC2ERSiRSoS1_R13PlotterParams @162
    _ZN10CGMPlotterC2ERSo @163
    _ZN10CGMPlotterC2ERSoR13PlotterParams @164
    _ZN10CGMPlotterC2Ev @165
    _ZN10CGMPlotterD0Ev @166
    _ZN10CGMPlotterD1Ev @167
    _ZN10CGMPlotterD2Ev @168
    _ZN10FigPlotter10_fig_colorEiii @169
    _ZN10FigPlotter10begin_pageEv @170
    _ZN10FigPlotter10erase_pageEv @171
    _ZN10FigPlotter10initializeEv @172
    _ZN10FigPlotter10paint_pathEv @173
    _ZN10FigPlotter11paint_pathsEv @174
    _ZN10FigPlotter11paint_pointEv @175
    _ZN10FigPlotter13retrieve_fontEv @176
    _ZN10FigPlotter16_f_set_pen_colorEv @177
    _ZN10FigPlotter17_f_set_fill_colorEv @178
    _ZN10FigPlotter17paint_text_stringEPKhii @179
    _ZN10FigPlotter20_f_draw_arc_internalEdddddd @180
    _ZN10FigPlotter20_f_draw_box_internalE7plPointS0_ @181
    _ZN10FigPlotter21_f_compute_line_styleEPiPd @182
    _ZN10FigPlotter24_f_draw_ellipse_internalEdddddi @183
    _ZN10FigPlotter8end_pageEv @184
    _ZN10FigPlotter9terminateEv @185
    _ZN10FigPlotterC1EP6_iobuf @186
    _ZN10FigPlotterC1EP6_iobufR13PlotterParams @187
    _ZN10FigPlotterC1EP6_iobufS1_S1_ @188
    _ZN10FigPlotterC1EP6_iobufS1_S1_R13PlotterParams @189
    _ZN10FigPlotterC1ER13PlotterParams @190
    _ZN10FigPlotterC1ERSiRSoS1_ @191
    _ZN10FigPlotterC1ERSiRSoS1_R13PlotterParams @192
    _ZN10FigPlotterC1ERSo @193
    _ZN10FigPlotterC1ERSoR13PlotterParams @194
    _ZN10FigPlotterC1Ev @195
    _ZN10FigPlotterC2EP6_iobuf @196
    _ZN10FigPlotterC2EP6_iobufR13PlotterParams @197
    _ZN10FigPlotterC2EP6_iobufS1_S1_ @198
    _ZN10FigPlotterC2EP6_iobufS1_S1_R13PlotterParams @199
    _ZN10FigPlotterC2ER13PlotterParams @200
    _ZN10FigPlotterC2ERSiRSoS1_ @201
    _ZN10FigPlotterC2ERSiRSoS1_R13PlotterParams @202
    _ZN10FigPlotterC2ERSo @203
    _ZN10FigPlotterC2ERSoR13PlotterParams @204
    _ZN10FigPlotterC2Ev @205
    _ZN10FigPlotterD0Ev @206
    _ZN10FigPlotterD1Ev @207
    _ZN10FigPlotterD2Ev @208
    _ZN10GIFPlotter10begin_pageEv @209
    _ZN10GIFPlotter10erase_pageEv @210
    _ZN10GIFPlotter10initializeEv @211
    _ZN10GIFPlotter10paint_pathEv @212
    _ZN10GIFPlotter11paint_pathsEv @213
    _ZN10GIFPlotter11paint_pointEv @214
    _ZN10GIFPlotter12_i_new_imageEv @215
    _ZN10GIFPlotter13_i_scan_pixelEv @216
    _ZN10GIFPlotter13_i_start_scanEv @217
    _ZN10GIFPlotter15_i_delete_imageEv @218
    _ZN10GIFPlotter15_i_set_bg_colorEv @219
    _ZN10GIFPlotter16_i_set_pen_colorEv @220
    _ZN10GIFPlotter17_i_set_fill_colorEv @221
    _ZN10GIFPlotter18_i_new_color_indexEiii @222
    _ZN10GIFPlotter18_i_write_gif_imageEv @223
    _ZN10GIFPlotter18_i_write_short_intEj @224
    _ZN10GIFPlotter19_i_write_gif_headerEv @225
    _ZN10GIFPlotter20_i_draw_elliptic_arcE7plPointS0_S0_ @226
    _ZN10GIFPlotter20_i_write_gif_trailerEv @227
    _ZN10GIFPlotter22_i_draw_elliptic_arc_2E7plPointS0_S0_ @228
    _ZN10GIFPlotter29_i_draw_elliptic_arc_internalEiijjii @229
    _ZN10GIFPlotter8end_pageEv @230
    _ZN10GIFPlotter9terminateEv @231
    _ZN10GIFPlotterC1EP6_iobuf @232
    _ZN10GIFPlotterC1EP6_iobufR13PlotterParams @233
    _ZN10GIFPlotterC1EP6_iobufS1_S1_ @234
    _ZN10GIFPlotterC1EP6_iobufS1_S1_R13PlotterParams @235
    _ZN10GIFPlotterC1ER13PlotterParams @236
    _ZN10GIFPlotterC1ERSiRSoS1_ @237
    _ZN10GIFPlotterC1ERSiRSoS1_R13PlotterParams @238
    _ZN10GIFPlotterC1ERSo @239
    _ZN10GIFPlotterC1ERSoR13PlotterParams @240
    _ZN10GIFPlotterC1Ev @241
    _ZN10GIFPlotterC2EP6_iobuf @242
    _ZN10GIFPlotterC2EP6_iobufR13PlotterParams @243
    _ZN10GIFPlotterC2EP6_iobufS1_S1_ @244
    _ZN10GIFPlotterC2EP6_iobufS1_S1_R13PlotterParams @245
    _ZN10GIFPlotterC2ER13PlotterParams @246
    _ZN10GIFPlotterC2ERSiRSoS1_ @247
    _ZN10GIFPlotterC2ERSiRSoS1_R13PlotterParams @248
    _ZN10GIFPlotterC2ERSo @249
    _ZN10GIFPlotterC2ERSoR13PlotterParams @250
    _ZN10GIFPlotterC2Ev @251
    _ZN10GIFPlotterD0Ev @252
    _ZN10GIFPlotterD1Ev @253
    _ZN10GIFPlotterD2Ev @254
    _ZN10PCLPlotter10initializeEv @255
    _ZN10PCLPlotter21_maybe_switch_to_hpglEv @256
    _ZN10PCLPlotter23_maybe_switch_from_hpglEv @257
    _ZN10PCLPlotter9terminateEv @258
    _ZN10PCLPlotterC1EP6_iobuf @259
    _ZN10PCLPlotterC1EP6_iobufR13PlotterParams @260
    _ZN10PCLPlotterC1EP6_iobufS1_S1_ @261
    _ZN10PCLPlotterC1EP6_iobufS1_S1_R13PlotterParams @262
    _ZN10PCLPlotterC1ER13PlotterParams @263
    _ZN10PCLPlotterC1ERSiRSoS1_ @264
    _ZN10PCLPlotterC1ERSiRSoS1_R13PlotterParams @265
    _ZN10PCLPlotterC1ERSo @266
    _ZN10PCLPlotterC1ERSoR13PlotterParams @267
    _ZN10PCLPlotterC1Ev @268
    _ZN10PCLPlotterC2EP6_iobuf @269
    _ZN10PCLPlotterC2EP6_iobufR13PlotterParams @270
    _ZN10PCLPlotterC2EP6_iobufS1_S1_ @271
    _ZN10PCLPlotterC2EP6_iobufS1_S1_R13PlotterParams @272
    _ZN10PCLPlotterC2ER13PlotterParams @273
    _ZN10PCLPlotterC2ERSiRSoS1_ @274
    _ZN10PCLPlotterC2ERSiRSoS1_R13PlotterParams @275
    _ZN10PCLPlotterC2ERSo @276
    _ZN10PCLPlotterC2ERSoR13PlotterParams @277
    _ZN10PCLPlotterC2Ev @278
    _ZN10PCLPlotterD0Ev @279
    _ZN10PCLPlotterD1Ev @280
    _ZN10PCLPlotterD2Ev @281
    _ZN10PNGPlotter10initializeEv @282
    _ZN10PNGPlotter19_maybe_output_imageEv @283
    _ZN10PNGPlotter9terminateEv @284
    _ZN10PNGPlotterC1EP6_iobuf @285
    _ZN10PNGPlotterC1EP6_iobufR13PlotterParams @286
    _ZN10PNGPlotterC1EP6_iobufS1_S1_ @287
    _ZN10PNGPlotterC1EP6_iobufS1_S1_R13PlotterParams @288
    _ZN10PNGPlotterC1ER13PlotterParams @289
    _ZN10PNGPlotterC1ERSiRSoS1_ @290
    _ZN10PNGPlotterC1ERSiRSoS1_R13PlotterParams @291
    _ZN10PNGPlotterC1ERSo @292
    _ZN10PNGPlotterC1ERSoR13PlotterParams @293
    _ZN10PNGPlotterC1Ev @294
    _ZN10PNGPlotterC2EP6_iobuf @295
    _ZN10PNGPlotterC2EP6_iobufR13PlotterParams @296
    _ZN10PNGPlotterC2EP6_iobufS1_S1_ @297
    _ZN10PNGPlotterC2EP6_iobufS1_S1_R13PlotterParams @298
    _ZN10PNGPlotterC2ER13PlotterParams @299
    _ZN10PNGPlotterC2ERSiRSoS1_ @300
    _ZN10PNGPlotterC2ERSiRSoS1_R13PlotterParams @301
    _ZN10PNGPlotterC2ERSo @302
    _ZN10PNGPlotterC2ERSoR13PlotterParams @303
    _ZN10PNGPlotterC2Ev @304
    _ZN10PNGPlotterD0Ev @305
    _ZN10PNGPlotterD1Ev @306
    _ZN10PNGPlotterD2Ev @307
    _ZN10PNMPlotter10initializeEv @308
    _ZN10PNMPlotter12_n_write_pbmEv @309
    _ZN10PNMPlotter12_n_write_pgmEv @310
    _ZN10PNMPlotter12_n_write_pnmEv @311
    _ZN10PNMPlotter12_n_write_ppmEv @312
    _ZN10PNMPlotter19_maybe_output_imageEv @313
    _ZN10PNMPlotter9terminateEv @314
    _ZN10PNMPlotterC1EP6_iobuf @315
    _ZN10PNMPlotterC1EP6_iobufR13PlotterParams @316
    _ZN10PNMPlotterC1EP6_iobufS1_S1_ @317
    _ZN10PNMPlotterC1EP6_iobufS1_S1_R13PlotterParams @318
    _ZN10PNMPlotterC1ER13PlotterParams @319
    _ZN10PNMPlotterC1ERSiRSoS1_ @320
    _ZN10PNMPlotterC1ERSiRSoS1_R13PlotterParams @321
    _ZN10PNMPlotterC1ERSo @322
    _ZN10PNMPlotterC1ERSoR13PlotterParams @323
    _ZN10PNMPlotterC1Ev @324
    _ZN10PNMPlotterC2EP6_iobuf @325
    _ZN10PNMPlotterC2EP6_iobufR13PlotterParams @326
    _ZN10PNMPlotterC2EP6_iobufS1_S1_ @327
    _ZN10PNMPlotterC2EP6_iobufS1_S1_R13PlotterParams @328
    _ZN10PNMPlotterC2ER13PlotterParams @329
    _ZN10PNMPlotterC2ERSiRSoS1_ @330
    _ZN10PNMPlotterC2ERSiRSoS1_R13PlotterParams @331
    _ZN10PNMPlotterC2ERSo @332
    _ZN10PNMPlotterC2ERSoR13PlotterParams @333
    _ZN10PNMPlotterC2Ev @334
    _ZN10PNMPlotterD0Ev @335
    _ZN10PNMPlotterD1Ev @336
    _ZN10PNMPlotterD2Ev @337
    _ZN10SVGPlotter10begin_pageEv @338
    _ZN10SVGPlotter10erase_pageEv @339
    _ZN10SVGPlotter10initializeEv @340
    _ZN10SVGPlotter10paint_pathEv @341
    _ZN10SVGPlotter11paint_pathsEv @342
    _ZN10SVGPlotter11paint_pointEv @343
    _ZN10SVGPlotter13_s_set_matrixEPKdS1_ @344
    _ZN10SVGPlotter17paint_text_stringEPKhii @345
    _ZN10SVGPlotter8end_pageEv @346
    _ZN10SVGPlotter9terminateEv @347
    _ZN10SVGPlotterC1EP6_iobuf @348
    _ZN10SVGPlotterC1EP6_iobufR13PlotterParams @349
    _ZN10SVGPlotterC1EP6_iobufS1_S1_ @350
    _ZN10SVGPlotterC1EP6_iobufS1_S1_R13PlotterParams @351
    _ZN10SVGPlotterC1ER13PlotterParams @352
    _ZN10SVGPlotterC1ERSiRSoS1_ @353
    _ZN10SVGPlotterC1ERSiRSoS1_R13PlotterParams @354
    _ZN10SVGPlotterC1ERSo @355
    _ZN10SVGPlotterC1ERSoR13PlotterParams @356
    _ZN10SVGPlotterC1Ev @357
    _ZN10SVGPlotterC2EP6_iobuf @358
    _ZN10SVGPlotterC2EP6_iobufR13PlotterParams @359
    _ZN10SVGPlotterC2EP6_iobufS1_S1_ @360
    _ZN10SVGPlotterC2EP6_iobufS1_S1_R13PlotterParams @361
    _ZN10SVGPlotterC2ER13PlotterParams @362
    _ZN10SVGPlotterC2ERSiRSoS1_ @363
    _ZN10SVGPlotterC2ERSiRSoS1_R13PlotterParams @364
    _ZN10SVGPlotterC2ERSo @365
    _ZN10SVGPlotterC2ERSoR13PlotterParams @366
    _ZN10SVGPlotterC2Ev @367
    _ZN10SVGPlotterD0Ev @368
    _ZN10SVGPlotterD1Ev @369
    _ZN10SVGPlotterD2Ev @370
    _ZN10TekPlotter10begin_pageEv @371
    _ZN10TekPlotter10erase_pageEv @372
    _ZN10TekPlotter10initializeEv @373
    _ZN10TekPlotter11_tek_vectorEii @374
    _ZN10TekPlotter11paint_pointEv @375
    _ZN10TekPlotter15_t_set_bg_colorEv @376
    _ZN10TekPlotter16_t_set_pen_colorEv @377
    _ZN10TekPlotter17_t_set_attributesEv @378
    _ZN10TekPlotter17path_is_flushableEv @379
    _ZN10TekPlotter22_tek_vector_compressedEiiiib @380
    _ZN10TekPlotter23maybe_prepaint_segmentsEi @381
    _ZN10TekPlotter8end_pageEv @382
    _ZN10TekPlotter9_tek_modeEi @383
    _ZN10TekPlotter9_tek_moveEii @384
    _ZN10TekPlotter9terminateEv @385
    _ZN10TekPlotterC1EP6_iobuf @386
    _ZN10TekPlotterC1EP6_iobufR13PlotterParams @387
    _ZN10TekPlotterC1EP6_iobufS1_S1_ @388
    _ZN10TekPlotterC1EP6_iobufS1_S1_R13PlotterParams @389
    _ZN10TekPlotterC1ER13PlotterParams @390
    _ZN10TekPlotterC1ERSiRSoS1_ @391
    _ZN10TekPlotterC1ERSiRSoS1_R13PlotterParams @392
    _ZN10TekPlotterC1ERSo @393
    _ZN10TekPlotterC1ERSoR13PlotterParams @394
    _ZN10TekPlotterC1Ev @395
    _ZN10TekPlotterC2EP6_iobuf @396
    _ZN10TekPlotterC2EP6_iobufR13PlotterParams @397
    _ZN10TekPlotterC2EP6_iobufS1_S1_ @398
    _ZN10TekPlotterC2EP6_iobufS1_S1_R13PlotterParams @399
    _ZN10TekPlotterC2ER13PlotterParams @400
    _ZN10TekPlotterC2ERSiRSoS1_ @401
    _ZN10TekPlotterC2ERSiRSoS1_R13PlotterParams @402
    _ZN10TekPlotterC2ERSo @403
    _ZN10TekPlotterC2ERSoR13PlotterParams @404
    _ZN10TekPlotterC2Ev @405
    _ZN10TekPlotterD0Ev @406
    _ZN10TekPlotterD1Ev @407
    _ZN10TekPlotterD2Ev @408
    _ZN11HPGLPlotter10begin_pageEv @409
    _ZN11HPGLPlotter10erase_pageEv @410
    _ZN11HPGLPlotter10initializeEv @411
    _ZN11HPGLPlotter10paint_pathEv @412
    _ZN11HPGLPlotter11_h_set_fontEv @413
    _ZN11HPGLPlotter11paint_pathsEv @414
    _ZN11HPGLPlotter11paint_pointEv @415
    _ZN11HPGLPlotter13_set_hpgl_penEi @416
    _ZN11HPGLPlotter15_h_set_positionEv @417
    _ZN11HPGLPlotter16_h_set_pen_colorEi @418
    _ZN11HPGLPlotter17_h_set_attributesEv @419
    _ZN11HPGLPlotter17_h_set_fill_colorEb @420
    _ZN11HPGLPlotter17_hpgl_pseudocolorEiiib @421
    _ZN11HPGLPlotter17_parse_pen_stringEPKc @422
    _ZN11HPGLPlotter17paint_text_stringEPKhii @423
    _ZN11HPGLPlotter18_set_hpgl_pen_typeEidd @424
    _ZN11HPGLPlotter19_set_hpgl_fill_typeEidd @425
    _ZN11HPGLPlotter21_maybe_switch_to_hpglEv @426
    _ZN11HPGLPlotter23_hpgl_maybe_update_fontEv @427
    _ZN11HPGLPlotter23_maybe_switch_from_hpglEv @428
    _ZN11HPGLPlotter24_hpgl2_maybe_update_fontEv @429
    _ZN11HPGLPlotter24_hpgl_shaded_pseudocolorEiiiPiPd @430
    _ZN11HPGLPlotter8end_pageEv @431
    _ZN11HPGLPlotter9terminateEv @432
    _ZN11HPGLPlotterC1EP6_iobuf @433
    _ZN11HPGLPlotterC1EP6_iobufR13PlotterParams @434
    _ZN11HPGLPlotterC1EP6_iobufS1_S1_ @435
    _ZN11HPGLPlotterC1EP6_iobufS1_S1_R13PlotterParams @436
    _ZN11HPGLPlotterC1ER13PlotterParams @437
    _ZN11HPGLPlotterC1ERSiRSoS1_ @438
    _ZN11HPGLPlotterC1ERSiRSoS1_R13PlotterParams @439
    _ZN11HPGLPlotterC1ERSo @440
    _ZN11HPGLPlotterC1ERSoR13PlotterParams @441
    _ZN11HPGLPlotterC1Ev @442
    _ZN11HPGLPlotterC2EP6_iobuf @443
    _ZN11HPGLPlotterC2EP6_iobufR13PlotterParams @444
    _ZN11HPGLPlotterC2EP6_iobufS1_S1_ @445
    _ZN11HPGLPlotterC2EP6_iobufS1_S1_R13PlotterParams @446
    _ZN11HPGLPlotterC2ER13PlotterParams @447
    _ZN11HPGLPlotterC2ERSiRSoS1_ @448
    _ZN11HPGLPlotterC2ERSiRSoS1_R13PlotterParams @449
    _ZN11HPGLPlotterC2ERSo @450
    _ZN11HPGLPlotterC2ERSoR13PlotterParams @451
    _ZN11HPGLPlotterC2Ev @452
    _ZN11HPGLPlotterD0Ev @453
    _ZN11HPGLPlotterD1Ev @454
    _ZN11HPGLPlotterD2Ev @455
    _ZN11MetaPlotter10begin_pageEv @456
    _ZN11MetaPlotter10erase_pageEv @457
    _ZN11MetaPlotter10initializeEv @458
    _ZN11MetaPlotter10paint_pathEv @459
    _ZN11MetaPlotter11paint_pathsEv @460
    _ZN11MetaPlotter11paint_pointEv @461
    _ZN11MetaPlotter12paint_markerEid @462
    _ZN11MetaPlotter13_m_emit_floatEd @463
    _ZN11MetaPlotter14_m_emit_stringEPKc @464
    _ZN11MetaPlotter15_m_emit_integerEi @465
    _ZN11MetaPlotter15_m_emit_op_codeEi @466
    _ZN11MetaPlotter17_m_set_attributesEj @467
    _ZN11MetaPlotter17path_is_flushableEv @468
    _ZN11MetaPlotter18_m_emit_terminatorEv @469
    _ZN11MetaPlotter22_m_paint_path_internalEPK6plPath @470
    _ZN11MetaPlotter23maybe_prepaint_segmentsEi @471
    _ZN11MetaPlotter30paint_text_string_with_escapesEPKhii @472
    _ZN11MetaPlotter8end_pageEv @473
    _ZN11MetaPlotter9terminateEv @474
    _ZN11MetaPlotterC1EP6_iobuf @475
    _ZN11MetaPlotterC1EP6_iobufR13PlotterParams @476
    _ZN11MetaPlotterC1EP6_iobufS1_S1_ @477
    _ZN11MetaPlotterC1EP6_iobufS1_S1_R13PlotterParams @478
    _ZN11MetaPlotterC1ER13PlotterParams @479
    _ZN11MetaPlotterC1ERSiRSoS1_ @480
    _ZN11MetaPlotterC1ERSiRSoS1_R13PlotterParams @481
    _ZN11MetaPlotterC1ERSo @482
    _ZN11MetaPlotterC1ERSoR13PlotterParams @483
    _ZN11MetaPlotterC1Ev @484
    _ZN11MetaPlotterC2EP6_iobuf @485
    _ZN11MetaPlotterC2EP6_iobufR13PlotterParams @486
    _ZN11MetaPlotterC2EP6_iobufS1_S1_ @487
    _ZN11MetaPlotterC2EP6_iobufS1_S1_R13PlotterParams @488
    _ZN11MetaPlotterC2ER13PlotterParams @489
    _ZN11MetaPlotterC2ERSiRSoS1_ @490
    _ZN11MetaPlotterC2ERSiRSoS1_R13PlotterParams @491
    _ZN11MetaPlotterC2ERSo @492
    _ZN11MetaPlotterC2ERSoR13PlotterParams @493
    _ZN11MetaPlotterC2Ev @494
    _ZN11MetaPlotterD0Ev @495
    _ZN11MetaPlotterD1Ev @496
    _ZN11MetaPlotterD2Ev @497
    _ZN12ReGISPlotter10begin_pageEv @498
    _ZN12ReGISPlotter10erase_pageEv @499
    _ZN12ReGISPlotter10initializeEv @500
    _ZN12ReGISPlotter10paint_pathEv @501
    _ZN12ReGISPlotter11_regis_moveEii @502
    _ZN12ReGISPlotter11paint_pathsEv @503
    _ZN12ReGISPlotter11paint_pointEv @504
    _ZN12ReGISPlotter15_r_set_bg_colorEv @505
    _ZN12ReGISPlotter16_r_set_pen_colorEv @506
    _ZN12ReGISPlotter17_r_set_attributesEv @507
    _ZN12ReGISPlotter17_r_set_fill_colorEv @508
    _ZN12ReGISPlotter17path_is_flushableEv @509
    _ZN12ReGISPlotter23maybe_prepaint_segmentsEi @510
    _ZN12ReGISPlotter8end_pageEv @511
    _ZN12ReGISPlotter9terminateEv @512
    _ZN12ReGISPlotterC1EP6_iobuf @513
    _ZN12ReGISPlotterC1EP6_iobufR13PlotterParams @514
    _ZN12ReGISPlotterC1EP6_iobufS1_S1_ @515
    _ZN12ReGISPlotterC1EP6_iobufS1_S1_R13PlotterParams @516
    _ZN12ReGISPlotterC1ER13PlotterParams @517
    _ZN12ReGISPlotterC1ERSiRSoS1_ @518
    _ZN12ReGISPlotterC1ERSiRSoS1_R13PlotterParams @519
    _ZN12ReGISPlotterC1ERSo @520
    _ZN12ReGISPlotterC1ERSoR13PlotterParams @521
    _ZN12ReGISPlotterC1Ev @522
    _ZN12ReGISPlotterC2EP6_iobuf @523
    _ZN12ReGISPlotterC2EP6_iobufR13PlotterParams @524
    _ZN12ReGISPlotterC2EP6_iobufS1_S1_ @525
    _ZN12ReGISPlotterC2EP6_iobufS1_S1_R13PlotterParams @526
    _ZN12ReGISPlotterC2ER13PlotterParams @527
    _ZN12ReGISPlotterC2ERSiRSoS1_ @528
    _ZN12ReGISPlotterC2ERSiRSoS1_R13PlotterParams @529
    _ZN12ReGISPlotterC2ERSo @530
    _ZN12ReGISPlotterC2ERSoR13PlotterParams @531
    _ZN12ReGISPlotterC2Ev @532
    _ZN12ReGISPlotterD0Ev @533
    _ZN12ReGISPlotterD1Ev @534
    _ZN12ReGISPlotterD2Ev @535
    _ZN13BitmapPlotter10begin_pageEv @536
    _ZN13BitmapPlotter10erase_pageEv @537
    _ZN13BitmapPlotter10initializeEv @538
    _ZN13BitmapPlotter10paint_pathEv @539
    _ZN13BitmapPlotter11paint_pathsEv @540
    _ZN13BitmapPlotter11paint_pointEv @541
    _ZN13BitmapPlotter12_b_new_imageEv @542
    _ZN13BitmapPlotter15_b_delete_imageEv @543
    _ZN13BitmapPlotter19_maybe_output_imageEv @544
    _ZN13BitmapPlotter20_b_draw_elliptic_arcE7plPointS0_S0_ @545
    _ZN13BitmapPlotter22_b_draw_elliptic_arc_2E7plPointS0_S0_ @546
    _ZN13BitmapPlotter29_b_draw_elliptic_arc_internalEiijjii @547
    _ZN13BitmapPlotter8end_pageEv @548
    _ZN13BitmapPlotter9terminateEv @549
    _ZN13BitmapPlotterC1EP6_iobuf @550
    _ZN13BitmapPlotterC1EP6_iobufR13PlotterParams @551
    _ZN13BitmapPlotterC1EP6_iobufS1_S1_ @552
    _ZN13BitmapPlotterC1EP6_iobufS1_S1_R13PlotterParams @553
    _ZN13BitmapPlotterC1ER13PlotterParams @554
    _ZN13BitmapPlotterC1ERSiRSoS1_ @555
    _ZN13BitmapPlotterC1ERSiRSoS1_R13PlotterParams @556
    _ZN13BitmapPlotterC1ERSo @557
    _ZN13BitmapPlotterC1ERSoR13PlotterParams @558
    _ZN13BitmapPlotterC1Ev @559
    _ZN13BitmapPlotterC2EP6_iobuf @560
    _ZN13BitmapPlotterC2EP6_iobufR13PlotterParams @561
    _ZN13BitmapPlotterC2EP6_iobufS1_S1_ @562
    _ZN13BitmapPlotterC2EP6_iobufS1_S1_R13PlotterParams @563
    _ZN13BitmapPlotterC2ER13PlotterParams @564
    _ZN13BitmapPlotterC2ERSiRSoS1_ @565
    _ZN13BitmapPlotterC2ERSiRSoS1_R13PlotterParams @566
    _ZN13BitmapPlotterC2ERSo @567
    _ZN13BitmapPlotterC2ERSoR13PlotterParams @568
    _ZN13BitmapPlotterC2Ev @569
    _ZN13BitmapPlotterD0Ev @570
    _ZN13BitmapPlotterD1Ev @571
    _ZN13BitmapPlotterD2Ev @572
    _ZN13PlotterParams10setplparamEPKcPv @573
    _ZN13PlotterParamsC1ERKS_ @574
    _ZN13PlotterParamsC1Ev @575
    _ZN13PlotterParamsC2ERKS_ @576
    _ZN13PlotterParamsC2Ev @577
    _ZN13PlotterParamsD1Ev @578
    _ZN13PlotterParamsD2Ev @579
    _ZN13PlotterParamsaSERKS_ @580
    _ZN7Plotter10begin_pageEv @581
    _ZN7Plotter10bezier2relEiiiiii @582
    _ZN7Plotter10bezier3relEiiiiiiii @583
    _ZN7Plotter10ellipserelEiiiii @584
    _ZN7Plotter10endsubpathEv @585
    _ZN7Plotter10erase_pageEv @586
    _ZN7Plotter10fcirclerelEddd @587
    _ZN7Plotter10fellarcrelEdddddd @588
    _ZN7Plotter10flinewidthEd @589
    _ZN7Plotter10fmarkerrelEddid @590
    _ZN7Plotter10fsetmatrixEdddddd @591
    _ZN7Plotter10ftextangleEd @592
    _ZN7Plotter10ftranslateEdd @593
    _ZN7Plotter10initializeEv @594
    _ZN7Plotter10labelwidthEPKc @595
    _ZN7Plotter10paint_pathEv @596
    _ZN7Plotter10push_stateEv @597
    _ZN7Plotter11_controlifyEPKh @598
    _ZN7Plotter11bgcolornameEPKc @599
    _ZN7Plotter11fbezier2relEdddddd @600
    _ZN7Plotter11fbezier3relEdddddddd @601
    _ZN7Plotter11fellipserelEddddd @602
    _ZN7Plotter11flabelwidthEPKc @603
    _ZN7Plotter11fmiterlimitEd @604
    _ZN7Plotter11orientationEi @605
    _ZN7Plotter11paint_pathsEv @606
    _ZN7Plotter11paint_pointEv @607
    _ZN7Plotter12flush_outputEv @608
    _ZN7Plotter12paint_markerEid @609
    _ZN7Plotter12pencolornameEPKc @610
    _ZN7Plotter12restorestateEv @611
    _ZN7Plotter13_plotters_lenE @612 DATA
    _ZN7Plotter13fillcolornameEPKc @613
    _ZN7Plotter13retrieve_fontEv @614
    _ZN7Plotter14get_text_widthEPKh @615
    _ZN7Plotter15_alabel_hersheyEPKhii @616
    _ZN7Plotter16get_ps_font_infoEv @617
    _ZN7Plotter17get_pcl_font_infoEv @618
    _ZN7Plotter17paint_text_stringEPKhii @619
    _ZN7Plotter17path_is_flushableEv @620
    _ZN7Plotter18_maybe_replace_arcEv @621
    _ZN7Plotter19_draw_hershey_glyphEidib @622
    _ZN7Plotter19get_stick_font_infoEv @623
    _ZN7Plotter20_draw_hershey_stringEPKt @624
    _ZN7Plotter20_draw_hershey_strokeEbdd @625
    _ZN7Plotter20_flabelwidth_hersheyEPKh @626
    _ZN7Plotter21_render_simple_stringEPKhbii @627
    _ZN7Plotter21get_hershey_font_infoEv @628
    _ZN7Plotter23_copy_params_to_plotterEPK13PlotterParams @629
    _ZN7Plotter23_free_params_in_plotterEv @630
    _ZN7Plotter23maybe_prepaint_segmentsEi @631
    _ZN7Plotter25_flush_plotter_outstreamsEv @632
    _ZN7Plotter26_draw_hershey_penup_strokeEdddb @633
    _ZN7Plotter26_render_non_hershey_stringEPKcbii @634
    _ZN7Plotter27_create_first_drawing_stateEv @635
    _ZN7Plotter27_delete_first_drawing_stateEv @636
    _ZN7Plotter30_old_api_global_plotter_paramsE @637 DATA
    _ZN7Plotter30paint_text_string_with_escapesEPKhii @638
    _ZN7Plotter3arcEiiiiii @639
    _ZN7Plotter3boxEiiii @640
    _ZN7Plotter4contEii @641
    _ZN7Plotter4farcEdddddd @642
    _ZN7Plotter4fboxEdddd @643
    _ZN7Plotter4lineEiiii @644
    _ZN7Plotter4moveEii @645
    _ZN7Plotter5colorEiii @646
    _ZN7Plotter5eraseEv @647
    _ZN7Plotter5errorEPKc @648
    _ZN7Plotter5fcontEdd @649
    _ZN7Plotter5flineEdddd @650
    _ZN7Plotter5fmoveEdd @651
    _ZN7Plotter5labelEPKc @652
    _ZN7Plotter5pointEii @653
    _ZN7Plotter5spaceEiiii @654
    _ZN7Plotter6alabelEiiPKc @655
    _ZN7Plotter6arcrelEiiiiii @656
    _ZN7Plotter6boxrelEiiii @657
    _ZN7Plotter6capmodEPKc @658
    _ZN7Plotter6circleEiii @659
    _ZN7Plotter6ellarcEiiiiii @660
    _ZN7Plotter6fpointEdd @661
    _ZN7Plotter6fscaleEdd @662
    _ZN7Plotter6fspaceEdddd @663
    _ZN7Plotter6markerEiiii @664
    _ZN7Plotter6openplEv @665
    _ZN7Plotter6space2Eiiiiii @666
    _ZN7Plotter7bezier2Eiiiiii @667
    _ZN7Plotter7bezier3Eiiiiiiii @668
    _ZN7Plotter7bgcolorEiii @669
    _ZN7Plotter7closeplEv @670
    _ZN7Plotter7contrelEii @671
    _ZN7Plotter7ellipseEiiiii @672
    _ZN7Plotter7endpathEv @673
    _ZN7Plotter7farcrelEdddddd @674
    _ZN7Plotter7fboxrelEdddd @675
    _ZN7Plotter7fcircleEddd @676
    _ZN7Plotter7fconcatEdddddd @677
    _ZN7Plotter7fellarcEdddddd @678
    _ZN7Plotter7fillmodEPKc @679
    _ZN7Plotter7flushplEv @680
    _ZN7Plotter7fmarkerEddid @681
    _ZN7Plotter7frotateEd @682
    _ZN7Plotter7fspace2Edddddd @683
    _ZN7Plotter7havecapEPKc @684
    _ZN7Plotter7joinmodEPKc @685
    _ZN7Plotter7linemodEPKc @686
    _ZN7Plotter7linerelEiiii @687
    _ZN7Plotter7moverelEii @688
    _ZN7Plotter7outfileEP6_iobuf @689
    _ZN7Plotter7paramplEPKcPv @690
    _ZN7Plotter7pentypeEi @691
    _ZN7Plotter7warningEPKc @692
    _ZN7Plotter8end_pageEv @693
    _ZN7Plotter8fbezier2Edddddd @694
    _ZN7Plotter8fbezier3Edddddddd @695
    _ZN7Plotter8fcontrelEdd @696
    _ZN7Plotter8fellipseEddddd @697
    _ZN7Plotter8filltypeEi @698
    _ZN7Plotter8flinerelEdddd @699
    _ZN7Plotter8fmoverelEdd @700
    _ZN7Plotter8fontnameEPKc @701
    _ZN7Plotter8fontsizeEi @702
    _ZN7Plotter8linedashEiPKii @703
    _ZN7Plotter8pencolorEiii @704
    _ZN7Plotter8pointrelEii @705
    _ZN7Plotter9_plottersE @706 DATA
    _ZN7Plotter9_set_fontEv @707
    _ZN7Plotter9circlerelEiii @708
    _ZN7Plotter9closepathEv @709
    _ZN7Plotter9colornameEPKc @710
    _ZN7Plotter9ellarcrelEiiiiii @711
    _ZN7Plotter9ffontnameEPKc @712
    _ZN7Plotter9ffontsizeEd @713
    _ZN7Plotter9fillcolorEiii @714
    _ZN7Plotter9flinedashEiPKdd @715
    _ZN7Plotter9fpointrelEdd @716
    _ZN7Plotter9linewidthEi @717
    _ZN7Plotter9markerrelEiiii @718
    _ZN7Plotter9pop_stateEv @719
    _ZN7Plotter9savestateEv @720
    _ZN7Plotter9terminateEv @721
    _ZN7Plotter9textangleEi @722
    _ZN7PlotterC1EP6_iobuf @723
    _ZN7PlotterC1EP6_iobufR13PlotterParams @724
    _ZN7PlotterC1EP6_iobufS1_S1_ @725
    _ZN7PlotterC1EP6_iobufS1_S1_R13PlotterParams @726
    _ZN7PlotterC1ER13PlotterParams @727
    _ZN7PlotterC1ERSiRSoS1_ @728
    _ZN7PlotterC1ERSiRSoS1_R13PlotterParams @729
    _ZN7PlotterC1ERSo @730
    _ZN7PlotterC1ERSoR13PlotterParams @731
    _ZN7PlotterC1Ev @732
    _ZN7PlotterC2EP6_iobuf @733
    _ZN7PlotterC2EP6_iobufR13PlotterParams @734
    _ZN7PlotterC2EP6_iobufS1_S1_ @735
    _ZN7PlotterC2EP6_iobufS1_S1_R13PlotterParams @736
    _ZN7PlotterC2ER13PlotterParams @737
    _ZN7PlotterC2ERSiRSoS1_ @738
    _ZN7PlotterC2ERSiRSoS1_R13PlotterParams @739
    _ZN7PlotterC2ERSo @740
    _ZN7PlotterC2ERSoR13PlotterParams @741
    _ZN7PlotterC2Ev @742
    _ZN7PlotterD0Ev @743
    _ZN7PlotterD1Ev @744
    _ZN7PlotterD2Ev @745
    _ZN9AIPlotter10begin_pageEv @746
    _ZN9AIPlotter10erase_pageEv @747
    _ZN9AIPlotter10initializeEv @748
    _ZN9AIPlotter10paint_pathEv @749
    _ZN9AIPlotter11paint_pathsEv @750
    _ZN9AIPlotter11paint_pointEv @751
    _ZN9AIPlotter16_a_set_pen_colorEv @752
    _ZN9AIPlotter17_a_set_attributesEv @753
    _ZN9AIPlotter17_a_set_fill_colorEb @754
    _ZN9AIPlotter17paint_text_stringEPKhii @755
    _ZN9AIPlotter8end_pageEv @756
    _ZN9AIPlotter9terminateEv @757
    _ZN9AIPlotterC1EP6_iobuf @758
    _ZN9AIPlotterC1EP6_iobufR13PlotterParams @759
    _ZN9AIPlotterC1EP6_iobufS1_S1_ @760
    _ZN9AIPlotterC1EP6_iobufS1_S1_R13PlotterParams @761
    _ZN9AIPlotterC1ER13PlotterParams @762
    _ZN9AIPlotterC1ERSiRSoS1_ @763
    _ZN9AIPlotterC1ERSiRSoS1_R13PlotterParams @764
    _ZN9AIPlotterC1ERSo @765
    _ZN9AIPlotterC1ERSoR13PlotterParams @766
    _ZN9AIPlotterC1Ev @767
    _ZN9AIPlotterC2EP6_iobuf @768
    _ZN9AIPlotterC2EP6_iobufR13PlotterParams @769
    _ZN9AIPlotterC2EP6_iobufS1_S1_ @770
    _ZN9AIPlotterC2EP6_iobufS1_S1_R13PlotterParams @771
    _ZN9AIPlotterC2ER13PlotterParams @772
    _ZN9AIPlotterC2ERSiRSoS1_ @773
    _ZN9AIPlotterC2ERSiRSoS1_R13PlotterParams @774
    _ZN9AIPlotterC2ERSo @775
    _ZN9AIPlotterC2ERSoR13PlotterParams @776
    _ZN9AIPlotterC2Ev @777
    _ZN9AIPlotterD0Ev @778
    _ZN9AIPlotterD1Ev @779
    _ZN9AIPlotterD2Ev @780
    _ZN9PSPlotter10begin_pageEv @781
    _ZN9PSPlotter10erase_pageEv @782
    _ZN9PSPlotter10initializeEv @783
    _ZN9PSPlotter10paint_pathEv @784
    _ZN9PSPlotter11paint_pathsEv @785
    _ZN9PSPlotter11paint_pointEv @786
    _ZN9PSPlotter16_p_set_pen_colorEv @787
    _ZN9PSPlotter17_p_set_fill_colorEv @788
    _ZN9PSPlotter17paint_text_stringEPKhii @789
    _ZN9PSPlotter20_p_fellipse_internalEdddddb @790
    _ZN9PSPlotter24_p_compute_idraw_bgcolorEv @791
    _ZN9PSPlotter25_p_emit_common_attributesEv @792
    _ZN9PSPlotter8end_pageEv @793
    _ZN9PSPlotter9terminateEv @794
    _ZN9PSPlotterC1EP6_iobuf @795
    _ZN9PSPlotterC1EP6_iobufR13PlotterParams @796
    _ZN9PSPlotterC1EP6_iobufS1_S1_ @797
    _ZN9PSPlotterC1EP6_iobufS1_S1_R13PlotterParams @798
    _ZN9PSPlotterC1ER13PlotterParams @799
    _ZN9PSPlotterC1ERSiRSoS1_ @800
    _ZN9PSPlotterC1ERSiRSoS1_R13PlotterParams @801
    _ZN9PSPlotterC1ERSo @802
    _ZN9PSPlotterC1ERSoR13PlotterParams @803
    _ZN9PSPlotterC1Ev @804
    _ZN9PSPlotterC2EP6_iobuf @805
    _ZN9PSPlotterC2EP6_iobufR13PlotterParams @806
    _ZN9PSPlotterC2EP6_iobufS1_S1_ @807
    _ZN9PSPlotterC2EP6_iobufS1_S1_R13PlotterParams @808
    _ZN9PSPlotterC2ER13PlotterParams @809
    _ZN9PSPlotterC2ERSiRSoS1_ @810
    _ZN9PSPlotterC2ERSiRSoS1_R13PlotterParams @811
    _ZN9PSPlotterC2ERSo @812
    _ZN9PSPlotterC2ERSoR13PlotterParams @813
    _ZN9PSPlotterC2Ev @814
    _ZN9PSPlotterD0Ev @815
    _ZN9PSPlotterD1Ev @816
    _ZN9PSPlotterD2Ev @817
    _ZNSt15basic_streambufIcSt11char_traitsIcEE13_S_pback_sizeE @818 DATA
    _ZTV10CGMPlotter @819 DATA
    _ZTV10FigPlotter @820 DATA
    _ZTV10GIFPlotter @821 DATA
    _ZTV10PCLPlotter @822 DATA
    _ZTV10PNGPlotter @823 DATA
    _ZTV10PNMPlotter @824 DATA
    _ZTV10SVGPlotter @825 DATA
    _ZTV10TekPlotter @826 DATA
    _ZTV11HPGLPlotter @827 DATA
    _ZTV11MetaPlotter @828 DATA
    _ZTV12ReGISPlotter @829 DATA
    _ZTV13BitmapPlotter @830 DATA
    _ZTV7Plotter @831 DATA
    _ZTV9AIPlotter @832 DATA
    _ZTV9PSPlotter @833 DATA
    _cgm_font_id_to_ps_font @834 DATA
    _cgm_font_properties @835 DATA
    _default_drawstate @836 DATA
    _fig_cap_style @837 DATA
    _fig_join_style @838 DATA
    _fig_line_style @839 DATA
    _fig_stdcolors @840 DATA
    _hershey_accented_char_info @841 DATA
    _hershey_font_info @842 DATA
    _hershey_typeface_info @843 DATA
    _idraw_brush_pattern @844 DATA
    _idraw_stdcolornames @845 DATA
    _idraw_stdcolors @846 DATA
    _idraw_stdshadings @847 DATA
    _kermit_bgcolor_escapes @848 DATA
    _kermit_fgcolor_escapes @849 DATA
    _kermit_stdcolors @850 DATA
    _known_params @851 DATA
    _line_styles @852 DATA
    _miDeleteEllipseCache @853
    _miDrawArcs_r @854
    _miDrawLines @855
    _miDrawPoints @856
    _miDrawRectangles @857
    _miFillArcs @858
    _miFillPolygon @859
    _miFillRectangles @860
    _miNewEllipseCache @861
    _mi_libxmi_ver @862 DATA
    _occidental_hershey_glyphs @863 DATA
    _oriental_hershey_glyphs @864 DATA
    _pcl_font_info @865 DATA
    _pcl_typeface_info @866 DATA
    _ps_cap_style @867 DATA
    _ps_font_info @868 DATA
    _ps_font_to_cgm_font_id @869 DATA
    _ps_join_style @870 DATA
    _ps_typeface_info @871 DATA
    _stick_font_info @872 DATA
    _stick_kerning_tables @873 DATA
    _stick_spacing_tables @874 DATA
    _stick_typeface_info @875 DATA
    libplotter_error_handler @876 DATA
    libplotter_warning_handler @877 DATA
    pl_libplot_ver @878 DATA
